; Function Attrs: mustprogress nounwind uwtable
define noundef ptr @_ZN7glslang13TIntermediate9addBranchENS_9TOperatorERKNS_10TSourceLocE(ptr nocapture noundef nonnull readnone align 8 dereferenceable(2024) %0, i32 noundef %1, ptr noundef nonnull align 8 dereferenceable(24) %2) local_unnamed_addr #0 align 2 {
  %4 = tail call noundef nonnull align 8 dereferenceable(96) ptr @_ZN7glslang22GetThreadPoolAllocatorEv() #17
  %5 = tail call noundef ptr @_ZN7glslang14TPoolAllocator8allocateEm(ptr noundef nonnull align 8 dereferenceable(96) %4, i64 noundef 48) #17
  %6 = getelementptr inbounds i8, ptr %5, i64 8
  tail call void @llvm.memset.p0.i64(ptr noundef nonnull align 8 dereferenceable(20) %6, i8 0, i64 20, i1 false)
  store ptr getelementptr inbounds inrange(-16, 232) (i8, ptr @_ZTVN7glslang13TIntermBranchE, i64 16), ptr %5, align 8
  %7 = getelementptr inbounds i8, ptr %5, i64 32
  store i32 %1, ptr %7, align 8
  %8 = getelementptr inbounds i8, ptr %5, i64 40
  store ptr null, ptr %8, align 8
  %9 = load ptr, ptr getelementptr inbounds inrange(-24, 224) (i8, ptr @_ZTVN7glslang13TIntermBranchE, i64 24), align 8
  tail call void %9(ptr noundef nonnull align 8 dereferenceable(32) %5, ptr noundef nonnull align 8 dereferenceable(24) %2) #17
  ret ptr %5
}